ARM GAS  C:\Users\Edwin\AppData\Local\Temp\ccYI8i4S.s 			page 1


   1              		.cpu cortex-m0
   2              		.eabi_attribute 20, 1
   3              		.eabi_attribute 21, 1
   4              		.eabi_attribute 23, 3
   5              		.eabi_attribute 24, 1
   6              		.eabi_attribute 25, 1
   7              		.eabi_attribute 26, 1
   8              		.eabi_attribute 30, 1
   9              		.eabi_attribute 34, 0
  10              		.eabi_attribute 18, 4
  11              		.file	"main.c"
  12              		.text
  13              	.Ltext0:
  14              		.cfi_sections	.debug_frame
  15              		.section	.text.SystemClock_Config,"ax",%progbits
  16              		.align	1
  17              		.global	SystemClock_Config
  18              		.arch armv6s-m
  19              		.syntax unified
  20              		.code	16
  21              		.thumb_func
  22              		.fpu softvfp
  24              	SystemClock_Config:
  25              	.LFB41:
  26              		.file 1 "Core/Src/main.c"
   1:Core/Src/main.c **** /* USER CODE BEGIN Header */
   2:Core/Src/main.c **** /**
   3:Core/Src/main.c ****   ******************************************************************************
   4:Core/Src/main.c ****   * @file           : main.c
   5:Core/Src/main.c ****   * @brief          : Main program body
   6:Core/Src/main.c ****   ******************************************************************************
   7:Core/Src/main.c ****   * @attention
   8:Core/Src/main.c ****   *
   9:Core/Src/main.c ****   * <h2><center>&copy; Copyright (c) 2021 STMicroelectronics.
  10:Core/Src/main.c ****   * All rights reserved.</center></h2>
  11:Core/Src/main.c ****   *
  12:Core/Src/main.c ****   * This software component is licensed by ST under BSD 3-Clause license,
  13:Core/Src/main.c ****   * the "License"; You may not use this file except in compliance with the
  14:Core/Src/main.c ****   * License. You may obtain a copy of the License at:
  15:Core/Src/main.c ****   *                        opensource.org/licenses/BSD-3-Clause
  16:Core/Src/main.c ****   *
  17:Core/Src/main.c ****   ******************************************************************************
  18:Core/Src/main.c ****   */
  19:Core/Src/main.c **** /* USER CODE END Header */
  20:Core/Src/main.c **** /* Includes ------------------------------------------------------------------*/
  21:Core/Src/main.c **** #include "main.h"
  22:Core/Src/main.c **** #include "usart.h"
  23:Core/Src/main.c **** #include "gpio.h"
  24:Core/Src/main.c **** 
  25:Core/Src/main.c **** /* Private includes ----------------------------------------------------------*/
  26:Core/Src/main.c **** /* USER CODE BEGIN Includes */
  27:Core/Src/main.c **** 
  28:Core/Src/main.c **** /* USER CODE END Includes */
  29:Core/Src/main.c **** 
  30:Core/Src/main.c **** /* Private typedef -----------------------------------------------------------*/
  31:Core/Src/main.c **** /* USER CODE BEGIN PTD */
  32:Core/Src/main.c **** 
ARM GAS  C:\Users\Edwin\AppData\Local\Temp\ccYI8i4S.s 			page 2


  33:Core/Src/main.c **** /* USER CODE END PTD */
  34:Core/Src/main.c **** 
  35:Core/Src/main.c **** /* Private define ------------------------------------------------------------*/
  36:Core/Src/main.c **** /* USER CODE BEGIN PD */
  37:Core/Src/main.c **** /* USER CODE END PD */
  38:Core/Src/main.c **** 
  39:Core/Src/main.c **** /* Private macro -------------------------------------------------------------*/
  40:Core/Src/main.c **** /* USER CODE BEGIN PM */
  41:Core/Src/main.c **** 
  42:Core/Src/main.c **** /* USER CODE END PM */
  43:Core/Src/main.c **** 
  44:Core/Src/main.c **** /* Private variables ---------------------------------------------------------*/
  45:Core/Src/main.c **** 
  46:Core/Src/main.c **** /* USER CODE BEGIN PV */
  47:Core/Src/main.c **** 
  48:Core/Src/main.c **** /* USER CODE END PV */
  49:Core/Src/main.c **** 
  50:Core/Src/main.c **** /* Private function prototypes -----------------------------------------------*/
  51:Core/Src/main.c **** void SystemClock_Config(void);
  52:Core/Src/main.c **** /* USER CODE BEGIN PFP */
  53:Core/Src/main.c **** 
  54:Core/Src/main.c **** /* USER CODE END PFP */
  55:Core/Src/main.c **** 
  56:Core/Src/main.c **** /* Private user code ---------------------------------------------------------*/
  57:Core/Src/main.c **** /* USER CODE BEGIN 0 */
  58:Core/Src/main.c **** 
  59:Core/Src/main.c **** /* USER CODE END 0 */
  60:Core/Src/main.c **** 
  61:Core/Src/main.c **** /**
  62:Core/Src/main.c ****   * @brief  The application entry point.
  63:Core/Src/main.c ****   * @retval int
  64:Core/Src/main.c ****   */
  65:Core/Src/main.c **** int main(void)
  66:Core/Src/main.c **** {
  67:Core/Src/main.c ****   /* USER CODE BEGIN 1 */
  68:Core/Src/main.c **** 
  69:Core/Src/main.c ****   /* USER CODE END 1 */
  70:Core/Src/main.c **** 
  71:Core/Src/main.c ****   /* MCU Configuration--------------------------------------------------------*/
  72:Core/Src/main.c **** 
  73:Core/Src/main.c ****   /* Reset of all peripherals, Initializes the Flash interface and the Systick. */
  74:Core/Src/main.c ****   HAL_Init();
  75:Core/Src/main.c **** 
  76:Core/Src/main.c ****   /* USER CODE BEGIN Init */
  77:Core/Src/main.c **** 
  78:Core/Src/main.c ****   /* USER CODE END Init */
  79:Core/Src/main.c **** 
  80:Core/Src/main.c ****   /* Configure the system clock */
  81:Core/Src/main.c ****   SystemClock_Config();
  82:Core/Src/main.c **** 
  83:Core/Src/main.c ****   /* USER CODE BEGIN SysInit */
  84:Core/Src/main.c **** 
  85:Core/Src/main.c ****   /* USER CODE END SysInit */
  86:Core/Src/main.c **** 
  87:Core/Src/main.c ****   /* Initialize all configured peripherals */
  88:Core/Src/main.c ****   MX_GPIO_Init();
  89:Core/Src/main.c ****   MX_USART2_UART_Init();
ARM GAS  C:\Users\Edwin\AppData\Local\Temp\ccYI8i4S.s 			page 3


  90:Core/Src/main.c ****   /* USER CODE BEGIN 2 */
  91:Core/Src/main.c **** 
  92:Core/Src/main.c ****   /* USER CODE END 2 */
  93:Core/Src/main.c **** 
  94:Core/Src/main.c ****   /* Infinite loop */
  95:Core/Src/main.c ****   /* USER CODE BEGIN WHILE */
  96:Core/Src/main.c ****   while (1)
  97:Core/Src/main.c ****   {
  98:Core/Src/main.c ****     /* USER CODE END WHILE */
  99:Core/Src/main.c **** 
 100:Core/Src/main.c ****     /* USER CODE BEGIN 3 */
 101:Core/Src/main.c ****   }
 102:Core/Src/main.c ****   /* USER CODE END 3 */
 103:Core/Src/main.c **** }
 104:Core/Src/main.c **** 
 105:Core/Src/main.c **** /**
 106:Core/Src/main.c ****   * @brief System Clock Configuration
 107:Core/Src/main.c ****   * @retval None
 108:Core/Src/main.c ****   */
 109:Core/Src/main.c **** void SystemClock_Config(void)
 110:Core/Src/main.c **** {
  27              		.loc 1 110 1 view -0
  28              		.cfi_startproc
  29              		@ args = 0, pretend = 0, frame = 72
  30              		@ frame_needed = 0, uses_anonymous_args = 0
  31 0000 10B5     		push	{r4, lr}
  32              	.LCFI0:
  33              		.cfi_def_cfa_offset 8
  34              		.cfi_offset 4, -8
  35              		.cfi_offset 14, -4
  36 0002 92B0     		sub	sp, sp, #72
  37              	.LCFI1:
  38              		.cfi_def_cfa_offset 80
 111:Core/Src/main.c ****   RCC_OscInitTypeDef RCC_OscInitStruct = {0};
  39              		.loc 1 111 3 view .LVU1
  40              		.loc 1 111 22 is_stmt 0 view .LVU2
  41 0004 3022     		movs	r2, #48
  42 0006 0021     		movs	r1, #0
  43 0008 06A8     		add	r0, sp, #24
  44 000a FFF7FEFF 		bl	memset
  45              	.LVL0:
 112:Core/Src/main.c ****   RCC_ClkInitTypeDef RCC_ClkInitStruct = {0};
  46              		.loc 1 112 3 is_stmt 1 view .LVU3
  47              		.loc 1 112 22 is_stmt 0 view .LVU4
  48 000e 1022     		movs	r2, #16
  49 0010 0021     		movs	r1, #0
  50 0012 01A8     		add	r0, sp, #4
  51 0014 FFF7FEFF 		bl	memset
  52              	.LVL1:
 113:Core/Src/main.c **** 
 114:Core/Src/main.c ****   /** Initializes the RCC Oscillators according to the specified parameters
 115:Core/Src/main.c ****   * in the RCC_OscInitTypeDef structure.
 116:Core/Src/main.c ****   */
 117:Core/Src/main.c ****   RCC_OscInitStruct.OscillatorType = RCC_OSCILLATORTYPE_HSI;
  53              		.loc 1 117 3 is_stmt 1 view .LVU5
  54              		.loc 1 117 36 is_stmt 0 view .LVU6
  55 0018 0223     		movs	r3, #2
ARM GAS  C:\Users\Edwin\AppData\Local\Temp\ccYI8i4S.s 			page 4


  56 001a 0593     		str	r3, [sp, #20]
 118:Core/Src/main.c ****   RCC_OscInitStruct.HSIState = RCC_HSI_ON;
  57              		.loc 1 118 3 is_stmt 1 view .LVU7
  58              		.loc 1 118 30 is_stmt 0 view .LVU8
  59 001c 013B     		subs	r3, r3, #1
  60 001e 0893     		str	r3, [sp, #32]
 119:Core/Src/main.c ****   RCC_OscInitStruct.HSICalibrationValue = RCC_HSICALIBRATION_DEFAULT;
  61              		.loc 1 119 3 is_stmt 1 view .LVU9
  62              		.loc 1 119 41 is_stmt 0 view .LVU10
  63 0020 0F33     		adds	r3, r3, #15
  64 0022 0993     		str	r3, [sp, #36]
 120:Core/Src/main.c ****   RCC_OscInitStruct.PLL.PLLState = RCC_PLL_NONE;
  65              		.loc 1 120 3 is_stmt 1 view .LVU11
  66              		.loc 1 120 34 is_stmt 0 view .LVU12
  67 0024 0024     		movs	r4, #0
 121:Core/Src/main.c ****   if (HAL_RCC_OscConfig(&RCC_OscInitStruct) != HAL_OK)
  68              		.loc 1 121 3 is_stmt 1 view .LVU13
  69              		.loc 1 121 7 is_stmt 0 view .LVU14
  70 0026 05A8     		add	r0, sp, #20
  71 0028 FFF7FEFF 		bl	HAL_RCC_OscConfig
  72              	.LVL2:
 122:Core/Src/main.c ****   {
 123:Core/Src/main.c ****     Error_Handler();
 124:Core/Src/main.c ****   }
 125:Core/Src/main.c ****   /** Initializes the CPU, AHB and APB buses clocks
 126:Core/Src/main.c ****   */
 127:Core/Src/main.c ****   RCC_ClkInitStruct.ClockType = RCC_CLOCKTYPE_HCLK|RCC_CLOCKTYPE_SYSCLK
  73              		.loc 1 127 3 is_stmt 1 view .LVU15
  74              		.loc 1 127 31 is_stmt 0 view .LVU16
  75 002c 0723     		movs	r3, #7
  76 002e 0193     		str	r3, [sp, #4]
 128:Core/Src/main.c ****                               |RCC_CLOCKTYPE_PCLK1;
 129:Core/Src/main.c ****   RCC_ClkInitStruct.SYSCLKSource = RCC_SYSCLKSOURCE_HSI;
  77              		.loc 1 129 3 is_stmt 1 view .LVU17
  78              		.loc 1 129 34 is_stmt 0 view .LVU18
  79 0030 0294     		str	r4, [sp, #8]
 130:Core/Src/main.c ****   RCC_ClkInitStruct.AHBCLKDivider = RCC_SYSCLK_DIV1;
  80              		.loc 1 130 3 is_stmt 1 view .LVU19
  81              		.loc 1 130 35 is_stmt 0 view .LVU20
  82 0032 0394     		str	r4, [sp, #12]
 131:Core/Src/main.c ****   RCC_ClkInitStruct.APB1CLKDivider = RCC_HCLK_DIV1;
  83              		.loc 1 131 3 is_stmt 1 view .LVU21
  84              		.loc 1 131 36 is_stmt 0 view .LVU22
  85 0034 0494     		str	r4, [sp, #16]
 132:Core/Src/main.c **** 
 133:Core/Src/main.c ****   if (HAL_RCC_ClockConfig(&RCC_ClkInitStruct, FLASH_LATENCY_0) != HAL_OK)
  86              		.loc 1 133 3 is_stmt 1 view .LVU23
  87              		.loc 1 133 7 is_stmt 0 view .LVU24
  88 0036 0021     		movs	r1, #0
  89 0038 01A8     		add	r0, sp, #4
  90 003a FFF7FEFF 		bl	HAL_RCC_ClockConfig
  91              	.LVL3:
 134:Core/Src/main.c ****   {
 135:Core/Src/main.c ****     Error_Handler();
 136:Core/Src/main.c ****   }
 137:Core/Src/main.c **** }
  92              		.loc 1 137 1 view .LVU25
ARM GAS  C:\Users\Edwin\AppData\Local\Temp\ccYI8i4S.s 			page 5


  93 003e 12B0     		add	sp, sp, #72
  94              		@ sp needed
  95 0040 10BD     		pop	{r4, pc}
  96              		.cfi_endproc
  97              	.LFE41:
  99              		.section	.text.main,"ax",%progbits
 100              		.align	1
 101              		.global	main
 102              		.syntax unified
 103              		.code	16
 104              		.thumb_func
 105              		.fpu softvfp
 107              	main:
 108              	.LFB40:
  66:Core/Src/main.c ****   /* USER CODE BEGIN 1 */
 109              		.loc 1 66 1 is_stmt 1 view -0
 110              		.cfi_startproc
 111              		@ Volatile: function does not return.
 112              		@ args = 0, pretend = 0, frame = 0
 113              		@ frame_needed = 0, uses_anonymous_args = 0
 114 0000 10B5     		push	{r4, lr}
 115              	.LCFI2:
 116              		.cfi_def_cfa_offset 8
 117              		.cfi_offset 4, -8
 118              		.cfi_offset 14, -4
  74:Core/Src/main.c **** 
 119              		.loc 1 74 3 view .LVU27
 120 0002 FFF7FEFF 		bl	HAL_Init
 121              	.LVL4:
  81:Core/Src/main.c **** 
 122              		.loc 1 81 3 view .LVU28
 123 0006 FFF7FEFF 		bl	SystemClock_Config
 124              	.LVL5:
  88:Core/Src/main.c ****   MX_USART2_UART_Init();
 125              		.loc 1 88 3 view .LVU29
 126 000a FFF7FEFF 		bl	MX_GPIO_Init
 127              	.LVL6:
  89:Core/Src/main.c ****   /* USER CODE BEGIN 2 */
 128              		.loc 1 89 3 view .LVU30
 129 000e FFF7FEFF 		bl	MX_USART2_UART_Init
 130              	.LVL7:
 131              	.L3:
  96:Core/Src/main.c ****   {
 132              		.loc 1 96 3 discriminator 1 view .LVU31
 101:Core/Src/main.c ****   /* USER CODE END 3 */
 133              		.loc 1 101 3 discriminator 1 view .LVU32
  96:Core/Src/main.c ****   {
 134              		.loc 1 96 9 discriminator 1 view .LVU33
 135 0012 FEE7     		b	.L3
 136              		.cfi_endproc
 137              	.LFE40:
 139              		.section	.text.Error_Handler,"ax",%progbits
 140              		.align	1
 141              		.global	Error_Handler
 142              		.syntax unified
 143              		.code	16
 144              		.thumb_func
ARM GAS  C:\Users\Edwin\AppData\Local\Temp\ccYI8i4S.s 			page 6


 145              		.fpu softvfp
 147              	Error_Handler:
 148              	.LFB42:
 138:Core/Src/main.c **** 
 139:Core/Src/main.c **** /* USER CODE BEGIN 4 */
 140:Core/Src/main.c **** 
 141:Core/Src/main.c **** /* USER CODE END 4 */
 142:Core/Src/main.c **** 
 143:Core/Src/main.c **** /**
 144:Core/Src/main.c ****   * @brief  This function is executed in case of error occurrence.
 145:Core/Src/main.c ****   * @retval None
 146:Core/Src/main.c ****   */
 147:Core/Src/main.c **** void Error_Handler(void)
 148:Core/Src/main.c **** {
 149              		.loc 1 148 1 view -0
 150              		.cfi_startproc
 151              		@ args = 0, pretend = 0, frame = 0
 152              		@ frame_needed = 0, uses_anonymous_args = 0
 153              		@ link register save eliminated.
 149:Core/Src/main.c ****   /* USER CODE BEGIN Error_Handler_Debug */
 150:Core/Src/main.c ****   /* User can add his own implementation to report the HAL error return state */
 151:Core/Src/main.c **** 
 152:Core/Src/main.c ****   /* USER CODE END Error_Handler_Debug */
 153:Core/Src/main.c **** }
 154              		.loc 1 153 1 view .LVU35
 155              		@ sp needed
 156 0000 7047     		bx	lr
 157              		.cfi_endproc
 158              	.LFE42:
 160              		.text
 161              	.Letext0:
 162              		.file 2 "c:\\program files (x86)\\gnu arm embedded toolchain\\9 2020-q2-update\\arm-none-eabi\\inc
 163              		.file 3 "c:\\program files (x86)\\gnu arm embedded toolchain\\9 2020-q2-update\\arm-none-eabi\\inc
 164              		.file 4 "Drivers/CMSIS/Device/ST/STM32F0xx/Include/system_stm32f0xx.h"
 165              		.file 5 "Drivers/CMSIS/Device/ST/STM32F0xx/Include/stm32f042x6.h"
 166              		.file 6 "Drivers/STM32F0xx_HAL_Driver/Inc/stm32f0xx_hal_def.h"
 167              		.file 7 "Drivers/STM32F0xx_HAL_Driver/Inc/stm32f0xx_hal_rcc.h"
 168              		.file 8 "Drivers/STM32F0xx_HAL_Driver/Inc/stm32f0xx_hal_dma.h"
 169              		.file 9 "Drivers/STM32F0xx_HAL_Driver/Inc/stm32f0xx_hal_uart.h"
 170              		.file 10 "Drivers/STM32F0xx_HAL_Driver/Inc/stm32f0xx_hal.h"
 171              		.file 11 "Core/Inc/usart.h"
 172              		.file 12 "Core/Inc/gpio.h"
 173              		.file 13 "<built-in>"
ARM GAS  C:\Users\Edwin\AppData\Local\Temp\ccYI8i4S.s 			page 7

